; Function Attrs: mustprogress uwtable
define dso_local noundef ptr @stbi_load_from_file_16(ptr noundef %0, ptr noundef captures(none) %1, ptr noundef captures(none) %2, ptr noundef %3, i32 noundef %4) local_unnamed_addr #4 {
  %6 = alloca %struct.stbi__context, align 8
  call void @llvm.lifetime.start.p0(i64 224, ptr nonnull %6) #35
  %7 = getelementptr inbounds nuw i8, ptr %6, i64 16
  call void @llvm.memcpy.p0.p0.i64(ptr noundef nonnull align 8 dereferenceable(24) %7, ptr noundef nonnull align 8 dereferenceable(24) @_ZL21stbi__stdio_callbacks, i64 24, i1 false), !tbaa.struct !12
  %8 = getelementptr inbounds nuw i8, ptr %6, i64 40
  store ptr %0, ptr %8, align 8, !tbaa !14
  %9 = getelementptr inbounds nuw i8, ptr %6, i64 52
  store i32 128, ptr %9, align 4, !tbaa !17
  %10 = getelementptr inbounds nuw i8, ptr %6, i64 48
  store i32 1, ptr %10, align 8, !tbaa !18
  %11 = getelementptr inbounds nuw i8, ptr %6, i64 184
  store i32 0, ptr %11, align 8, !tbaa !19
  %12 = getelementptr inbounds nuw i8, ptr %6, i64 56
  %13 = getelementptr inbounds nuw i8, ptr %6, i64 208
  store ptr %12, ptr %13, align 8, !tbaa !20
  %14 = getelementptr inbounds nuw i8, ptr %6, i64 192
  store ptr %12, ptr %14, align 8, !tbaa !21
  %15 = load ptr, ptr %7, align 8, !tbaa !22
  %16 = call noundef i32 %15(ptr noundef %0, ptr noundef nonnull %12, i32 noundef 128)
  %17 = load ptr, ptr %14, align 8, !tbaa !21
  %18 = load ptr, ptr %13, align 8, !tbaa !20
  %19 = ptrtoint ptr %17 to i64
  %20 = ptrtoint ptr %18 to i64
  %21 = sub i64 %19, %20
  %22 = trunc i64 %21 to i32
  %23 = load i32, ptr %11, align 8, !tbaa !19
  %24 = add nsw i32 %23, %22
  store i32 %24, ptr %11, align 8, !tbaa !19
  %25 = icmp eq i32 %16, 0
  br i1 %25, label %26, label %28

26:                                               ; preds = %5
  store i32 0, ptr %10, align 8, !tbaa !18
  %27 = getelementptr inbounds nuw i8, ptr %6, i64 57
  store i8 0, ptr %12, align 8, !tbaa !23
  br label %_ZL16stbi__start_fileP13stbi__contextP8_IO_FILE.exit

28:                                               ; preds = %5
  %29 = sext i32 %16 to i64
  %30 = getelementptr inbounds i8, ptr %12, i64 %29
  br label %_ZL16stbi__start_fileP13stbi__contextP8_IO_FILE.exit

_ZL16stbi__start_fileP13stbi__contextP8_IO_FILE.exit: ; preds = %26, %28
  %.sink.i.i.i = phi ptr [ %27, %26 ], [ %30, %28 ]
  store ptr %12, ptr %14, align 8, !tbaa !21
  %31 = getelementptr inbounds nuw i8, ptr %6, i64 200
  store ptr %.sink.i.i.i, ptr %31, align 8, !tbaa !24
  %32 = getelementptr inbounds nuw i8, ptr %6, i64 216
  store ptr %.sink.i.i.i, ptr %32, align 8, !tbaa !25
  %33 = call fastcc noundef ptr @_ZL32stbi__load_and_postprocess_16bitP13stbi__contextPiS1_S1_i(ptr noundef %6, ptr noundef %1, ptr noundef %2, ptr noundef %3, i32 noundef %4)
  %.not = icmp eq ptr %33, null
  br i1 %.not, label %41, label %34

34:                                               ; preds = %_ZL16stbi__start_fileP13stbi__contextP8_IO_FILE.exit
  %35 = load ptr, ptr %31, align 8, !tbaa !24
  %36 = load ptr, ptr %14, align 8, !tbaa !21
  %37 = ptrtoint ptr %35 to i64
  %38 = ptrtoint ptr %36 to i64
  %.neg = sub i64 %38, %37
  %sext = shl i64 %.neg, 32
  %39 = ashr exact i64 %sext, 32
  %40 = call i32 @fseek(ptr noundef %0, i64 noundef %39, i32 noundef 1)
  br label %41

41:                                               ; preds = %34, %_ZL16stbi__start_fileP13stbi__contextP8_IO_FILE.exit
  call void @llvm.lifetime.end.p0(i64 224, ptr nonnull %6) #35
  ret ptr %33
}